; Function Attrs: mustprogress uwtable
define void @_ZN5folly12EventHandler19ensureNotRegisteredEPKc(ptr noundef nonnull readonly align 8 captures(none) dereferenceable(184) %0, ptr noundef %1) local_unnamed_addr #1 align 2 personality ptr @__gxx_personality_v0 {
  %3 = alloca %"class.google::LogMessage", align 8
  %4 = getelementptr inbounds nuw i8, ptr %0, i64 24
  %5 = load i16, ptr %4, align 8, !tbaa !30
  %6 = and i16 %5, 15
  %.not = icmp eq i16 %6, 0
  br i1 %.not, label %16, label %7

7:                                                ; preds = %2
  call void @llvm.lifetime.start.p0(i64 16, ptr nonnull %3) #17
  call void @_ZN6google10LogMessageC1EPKcii(ptr noundef nonnull align 8 dereferenceable(16) %3, ptr noundef nonnull @.str, i32 noundef 141, i32 noundef 2)
  %8 = invoke noundef nonnull align 8 dereferenceable(8) ptr @_ZN6google10LogMessage6streamEv(ptr noundef nonnull align 8 dereferenceable(16) %3)
          to label %9 unwind label %14

9:                                                ; preds = %7
  %10 = invoke noundef nonnull align 8 dereferenceable(8) ptr @_ZStlsISt11char_traitsIcEERSt13basic_ostreamIcT_ES5_PKc(ptr noundef nonnull align 8 dereferenceable(8) %8, ptr noundef %1)
          to label %11 unwind label %14

11:                                               ; preds = %9
  %12 = invoke noundef nonnull align 8 dereferenceable(8) ptr @_ZStlsISt11char_traitsIcEERSt13basic_ostreamIcT_ES5_PKc(ptr noundef nonnull align 8 dereferenceable(8) %10, ptr noundef nonnull @.str.3)
          to label %13 unwind label %14

13:                                               ; preds = %11
  call void @_ZN6google10LogMessageD1Ev(ptr noundef nonnull align 8 dereferenceable(16) %3) #17
  call void @llvm.lifetime.end.p0(i64 16, ptr nonnull %3) #17
  call void @abort() #16
  unreachable

14:                                               ; preds = %11, %9, %7
  %15 = landingpad { ptr, i32 }
          cleanup
  call void @_ZN6google10LogMessageD1Ev(ptr noundef nonnull align 8 dereferenceable(16) %3) #17
  call void @llvm.lifetime.end.p0(i64 16, ptr nonnull %3) #17
  resume { ptr, i32 } %15

16:                                               ; preds = %2
  ret void
}